; Function Attrs: nounwind uwtable
define range(i32 -1, 1) i32 @Gia_ManCexAbstractionRefine(ptr noundef %0, ptr noundef %1, i32 noundef %2, i32 noundef %3, i32 noundef %4, i32 noundef %5) local_unnamed_addr #2 {
  %7 = getelementptr inbounds nuw i8, ptr %0, i64 440
  %8 = load ptr, ptr %7, align 8
  %9 = icmp eq ptr %8, null
  br i1 %9, label %10, label %11

10:                                               ; preds = %6
  %puts = tail call i32 @puts(ptr nonnull dereferenceable(1) @str.5)
  br label %51

11:                                               ; preds = %6
  %12 = tail call ptr @Gia_ManToAig(ptr noundef nonnull %0, i32 noundef 0) #18
  %13 = load ptr, ptr %7, align 8
  %14 = tail call ptr @Gia_ManClasses2Flops(ptr noundef %13)
  %15 = load ptr, ptr %7, align 8
  %16 = tail call i32 @Saig_ManCexRefineStep(ptr noundef %12, ptr noundef %14, ptr noundef %15, ptr noundef %1, i32 noundef %2, i32 poison, i32 noundef %4, i32 noundef %5)
  %.not = icmp eq i32 %16, 0
  br i1 %.not, label %17, label %24

17:                                               ; preds = %11
  %18 = getelementptr inbounds nuw i8, ptr %12, i64 408
  %19 = load ptr, ptr %18, align 8
  %20 = getelementptr inbounds nuw i8, ptr %0, i64 376
  store ptr %19, ptr %20, align 8
  store ptr null, ptr %18, align 8
  %21 = getelementptr inbounds nuw i8, ptr %14, i64 8
  %22 = load ptr, ptr %21, align 8
  %.not.i = icmp eq ptr %22, null
  br i1 %.not.i, label %Vec_IntFree.exit, label %23

23:                                               ; preds = %17
  tail call void @free(ptr noundef nonnull %22) #18
  br label %Vec_IntFree.exit

Vec_IntFree.exit:                                 ; preds = %17, %23
  tail call void @free(ptr noundef nonnull %14) #18
  tail call void @Aig_ManStop(ptr noundef nonnull %12) #18
  br label %51

24:                                               ; preds = %11
  %25 = load ptr, ptr %7, align 8
  %26 = getelementptr inbounds nuw i8, ptr %25, i64 8
  %27 = load ptr, ptr %26, align 8
  %.not.i22 = icmp eq ptr %27, null
  br i1 %.not.i22, label %Vec_IntFree.exit23, label %28

28:                                               ; preds = %24
  tail call void @free(ptr noundef nonnull %27) #18
  br label %Vec_IntFree.exit23

Vec_IntFree.exit23:                               ; preds = %24, %28
  tail call void @free(ptr noundef nonnull %25) #18
  %29 = getelementptr i8, ptr %0, i64 16
  %.val9.i = load i32, ptr %29, align 8
  %30 = tail call noalias dereferenceable_or_null(16) ptr @malloc(i64 noundef 16) #21
  %31 = add i32 %.val9.i, -1
  %or.cond.i.i.i = icmp ult i32 %31, 15
  %spec.store.select.i.i.i = select i1 %or.cond.i.i.i, i32 16, i32 %.val9.i
  %32 = getelementptr inbounds nuw i8, ptr %30, i64 4
  store i32 %spec.store.select.i.i.i, ptr %30, align 8
  %.not.i.i.i = icmp eq i32 %spec.store.select.i.i.i, 0
  br i1 %.not.i.i.i, label %Vec_IntAlloc.exit.thread.i.i, label %Vec_IntAlloc.exit.i.i

Vec_IntAlloc.exit.thread.i.i:                     ; preds = %Vec_IntFree.exit23
  %33 = getelementptr inbounds nuw i8, ptr %30, i64 8
  store ptr null, ptr %33, align 8
  store i32 %.val9.i, ptr %32, align 4
  br label %Vec_IntStart.exit.i

Vec_IntAlloc.exit.i.i:                            ; preds = %Vec_IntFree.exit23
  %34 = sext i32 %spec.store.select.i.i.i to i64
  %35 = shl nsw i64 %34, 2
  %36 = tail call noalias ptr @malloc(i64 noundef %35) #21
  %37 = getelementptr inbounds nuw i8, ptr %30, i64 8
  store ptr %36, ptr %37, align 8
  store i32 %.val9.i, ptr %32, align 4
  %.not.i.i = icmp eq ptr %36, null
  br i1 %.not.i.i, label %Vec_IntStart.exit.i, label %38

38:                                               ; preds = %Vec_IntAlloc.exit.i.i
  %39 = sext i32 %.val9.i to i64
  %40 = shl nsw i64 %39, 2
  tail call void @llvm.memset.p0.i64(ptr nonnull align 4 %36, i8 0, i64 %40, i1 false)
  br label %Vec_IntStart.exit.i

Vec_IntStart.exit.i:                              ; preds = %38, %Vec_IntAlloc.exit.i.i, %Vec_IntAlloc.exit.thread.i.i
  %.val10.i = phi ptr [ null, %Vec_IntAlloc.exit.thread.i.i ], [ null, %Vec_IntAlloc.exit.i.i ], [ %36, %38 ]
  %41 = getelementptr i8, ptr %14, i64 4
  %.val811.i = load i32, ptr %41, align 4
  %42 = icmp sgt i32 %.val811.i, 0
  %43 = getelementptr i8, ptr %14, i64 8
  %.val.pre.i = load ptr, ptr %43, align 8
  br i1 %42, label %.lr.ph.i, label %Gia_ManFlops2Classes.exit

.lr.ph.i:                                         ; preds = %Vec_IntStart.exit.i
  %44 = zext nneg i32 %.val811.i to i64
  br label %45

45:                                               ; preds = %45, %.lr.ph.i
  %indvars.iv.i = phi i64 [ 0, %.lr.ph.i ], [ %indvars.iv.next.i, %45 ]
  %46 = getelementptr inbounds nuw i32, ptr %.val.pre.i, i64 %indvars.iv.i
  %47 = load i32, ptr %46, align 4
  %48 = sext i32 %47 to i64
  %49 = getelementptr inbounds i32, ptr %.val10.i, i64 %48
  store i32 1, ptr %49, align 4
  %indvars.iv.next.i = add nuw nsw i64 %indvars.iv.i, 1
  %exitcond.not = icmp eq i64 %indvars.iv.next.i, %44
  br i1 %exitcond.not, label %Gia_ManFlops2Classes.exit.thread, label %45, !llvm.loop !14

Gia_ManFlops2Classes.exit.thread:                 ; preds = %45
  store ptr %30, ptr %7, align 8
  br label %50

Gia_ManFlops2Classes.exit:                        ; preds = %Vec_IntStart.exit.i
  store ptr %30, ptr %7, align 8
  %.not.i24 = icmp eq ptr %.val.pre.i, null
  br i1 %.not.i24, label %Vec_IntFree.exit25, label %50

50:                                               ; preds = %Gia_ManFlops2Classes.exit.thread, %Gia_ManFlops2Classes.exit
  tail call void @free(ptr noundef nonnull %.val.pre.i) #18
  br label %Vec_IntFree.exit25

Vec_IntFree.exit25:                               ; preds = %Gia_ManFlops2Classes.exit, %50
  tail call void @free(ptr noundef nonnull %14) #18
  tail call void @Aig_ManStop(ptr noundef %12) #18
  br label %51

51:                                               ; preds = %Vec_IntFree.exit25, %Vec_IntFree.exit, %10
  %.0 = phi i32 [ -1, %10 ], [ -1, %Vec_IntFree.exit25 ], [ 0, %Vec_IntFree.exit ]
  ret i32 %.0
}